target datalayout = "e-m:e-p270:32:32-p271:32:32-p272:64:64-i64:64-i128:128-f80:128-n8:16:32:64-S128"
target triple = "x86_64-pc-linux-gnu"

%struct.darktable_t = type { %struct.dt_codepath_t, i32, i32, ptr, ptr, ptr, ptr, ptr, ptr, ptr, ptr, ptr, ptr, ptr, ptr, ptr, ptr, ptr, ptr, ptr, ptr, ptr, ptr, ptr, ptr, ptr, ptr, ptr, ptr, ptr, [64 x %struct.dt_pthread_mutex_t], %struct.dt_pthread_mutex_t, %struct.dt_pthread_mutex_t, %struct.dt_pthread_mutex_t, %struct.dt_pthread_mutex_t, %struct.dt_pthread_mutex_t, ptr, ptr, ptr, ptr, ptr, ptr, ptr, ptr, ptr, ptr, ptr, ptr, ptr, %struct.dt_lua_state_t, ptr, double, ptr, i32, [47 x i32], i32, i32, ptr, ptr, %struct.dt_sys_resources_t, %struct.dt_backthumb_t, %struct.dt_gimp_t }
%struct.dt_codepath_t = type { i8, [3 x i8] }
%struct.dt_pthread_mutex_t = type { %union.pthread_mutex_t }
%union.pthread_mutex_t = type { %struct.__pthread_mutex_s }
%struct.__pthread_mutex_s = type { i32, i32, i32, i32, i32, i16, i16, %struct.__pthread_internal_list }
%struct.__pthread_internal_list = type { ptr, ptr }
%struct.dt_lua_state_t = type { i32 }
%struct.dt_sys_resources_t = type { i64, i64, ptr, ptr, i32 }
%struct.dt_backthumb_t = type { double, double, i32, i32, i32, i32 }
%struct.dt_gimp_t = type { i32, ptr, ptr, i32, i32 }
%struct.dt_database_t = type { i32, ptr, ptr, ptr, ptr, ptr, ptr, ptr, i32 }

@darktable = external global %struct.darktable_t, align 8
@.str.23 = private unnamed_addr constant [9 x i8] c":memory:\00", align 1
@.str.34 = private unnamed_addr constant [1 x i8] zeroinitializer, align 1
@.str.147 = private unnamed_addr constant [3 x i8] c"%d\00", align 1
@.str.148 = private unnamed_addr constant [6 x i8] c".lock\00", align 1
@.str.149 = private unnamed_addr constant [87 x i8] c"[init] the database lock file contains a pid that seems to be alive in your system: %d\00", align 1
@.str.150 = private unnamed_addr constant [80 x i8] c"the database lock file contains a pid that seems to be alive in your system: %d\00", align 1
@.str.151 = private unnamed_addr constant [48 x i8] c"[init] the database lock file seems to be empty\00", align 1
@.str.152 = private unnamed_addr constant [41 x i8] c"the database lock file seems to be empty\00", align 1
@.str.153 = private unnamed_addr constant [60 x i8] c"[init] error opening the database lock file for reading: %s\00", align 1
@.str.154 = private unnamed_addr constant [53 x i8] c"error opening the database lock file for reading: %s\00", align 1
@.str.155 = private unnamed_addr constant [17 x i8] c"/proc/%d/cmdline\00", align 1
@.str.156 = private unnamed_addr constant [10 x i8] c"darktable\00", align 1

; Function Attrs: nounwind uwtable
define internal i32 @pid_is_alive(i32 noundef %0) #0 {
  %2 = alloca i32, align 4
  %3 = alloca i32, align 4
  %4 = alloca ptr, align 8
  %5 = alloca i64, align 8
  %6 = alloca [64 x i8], align 16
  store i32 %0, ptr %2, align 4, !tbaa !21
  call void @llvm.lifetime.start.p0(i64 4, ptr %3) #13
  %7 = load i32, ptr %2, align 4, !tbaa !21
  %8 = call i32 @kill(i32 noundef %7, i32 noundef 0) #13
  %9 = icmp eq i32 %8, -1
  br i1 %9, label %10, label %14

10:                                               ; preds = %1
  %11 = call ptr @__errno_location() #17
  %12 = load i32, ptr %11, align 4, !tbaa !21
  %13 = icmp eq i32 %12, 3
  br label %14

14:                                               ; preds = %10, %1
  %15 = phi i1 [ false, %1 ], [ %13, %10 ]
  %16 = xor i1 %15, true
  %17 = zext i1 %16 to i32
  store i32 %17, ptr %3, align 4, !tbaa !21
  %18 = load i32, ptr %3, align 4, !tbaa !21
  %19 = icmp ne i32 %18, 0
  br i1 %19, label %20, label %34

20:                                               ; preds = %14
  call void @llvm.lifetime.start.p0(i64 8, ptr %4) #13
  call void @llvm.lifetime.start.p0(i64 8, ptr %5) #13
  call void @llvm.lifetime.start.p0(i64 64, ptr %6) #13
  %21 = getelementptr inbounds [64 x i8], ptr %6, i64 0, i64 0
  %22 = load i32, ptr %2, align 4, !tbaa !21
  %23 = call i32 (ptr, i64, ptr, ...) @snprintf(ptr noundef %21, i64 noundef 64, ptr noundef @.str.155, i32 noundef %22) #13
  %24 = call i32 @g_file_get_contents(ptr noundef @.str.34, ptr noundef %4, ptr noundef %5, ptr noundef null)
  %25 = icmp ne i32 %24, 0
  br i1 %25, label %26, label %33

26:                                               ; preds = %20
  %27 = load ptr, ptr %4, align 8, !tbaa !18
  %28 = call ptr @strstr(ptr noundef %27, ptr noundef @.str.156) #14
  %29 = icmp eq ptr %28, null
  br i1 %29, label %30, label %31

30:                                               ; preds = %26
  store i32 0, ptr %3, align 4, !tbaa !21
  br label %31

31:                                               ; preds = %30, %26
  %32 = load ptr, ptr %4, align 8, !tbaa !18
  call void @g_free(ptr noundef %32)
  br label %33

33:                                               ; preds = %31, %20
  call void @llvm.lifetime.end.p0(i64 64, ptr %6) #13
  call void @llvm.lifetime.end.p0(i64 8, ptr %5) #13
  call void @llvm.lifetime.end.p0(i64 8, ptr %4) #13
  br label %34

34:                                               ; preds = %33, %14
  %35 = load i32, ptr %3, align 4, !tbaa !21
  call void @llvm.lifetime.end.p0(i64 4, ptr %3) #13
  ret i32 %35
}

; Function Attrs: inlinehint nounwind willreturn memory(read) uwtable
define available_externally i32 @atoi(ptr noundef nonnull %0) #10 {
  %2 = alloca ptr, align 8
  store ptr %0, ptr %2, align 8, !tbaa !18
  %3 = load ptr, ptr %2, align 8, !tbaa !18
  %4 = call i64 @strtol(ptr noundef %3, ptr noundef null, i32 noundef 10) #13
  %5 = trunc i64 %4 to i32
  ret i32 %5
}

; Function Attrs: nounwind uwtable
define internal i32 @_lock_single_database(ptr noundef %0, ptr noundef %1, ptr noundef %2) #0 {
  %4 = alloca ptr, align 8
  %5 = alloca ptr, align 8
  %6 = alloca ptr, align 8
  %7 = alloca i32, align 4
  %8 = alloca i32, align 4
  %9 = alloca i32, align 4
  %10 = alloca ptr, align 8
  %11 = alloca i32, align 4
  %12 = alloca [64 x i8], align 16
  %13 = alloca i32, align 4
  %14 = alloca i32, align 4
  %15 = alloca i32, align 4
  store ptr %0, ptr %4, align 8, !tbaa !6
  store ptr %1, ptr %5, align 8, !tbaa !18
  store ptr %2, ptr %6, align 8, !tbaa !90
  call void @llvm.lifetime.start.p0(i64 4, ptr %7) #13
  store i32 0, ptr %7, align 4, !tbaa !21
  call void @llvm.lifetime.start.p0(i64 4, ptr %8) #13
  call void @llvm.lifetime.start.p0(i64 4, ptr %9) #13
  store i32 0, ptr %9, align 4, !tbaa !21
  call void @llvm.lifetime.start.p0(i64 8, ptr %10) #13
  %16 = call i32 @getpid() #13
  %17 = call noalias ptr (ptr, ...) @g_strdup_printf(ptr noundef @.str.147, i32 noundef %16)
  store ptr %17, ptr %10, align 8, !tbaa !18
  %18 = load ptr, ptr %5, align 8, !tbaa !18
  %19 = call i32 @strcmp(ptr noundef %18, ptr noundef @.str.23) #14
  %20 = icmp ne i32 %19, 0
  br i1 %20, label %22, label %21

21:                                               ; preds = %3
  store i32 1, ptr %7, align 4, !tbaa !21
  br label %148

22:                                               ; preds = %3
  %23 = load ptr, ptr %5, align 8, !tbaa !18
  %24 = call noalias ptr (ptr, ...) @g_strconcat(ptr noundef %23, ptr noundef @.str.148, ptr noundef null)
  %25 = load ptr, ptr %6, align 8, !tbaa !90
  store ptr %24, ptr %25, align 8, !tbaa !18
  br label %26

26:                                               ; preds = %144, %22
  %27 = load i32, ptr %9, align 4, !tbaa !21
  %28 = add nsw i32 %27, 1
  store i32 %28, ptr %9, align 4, !tbaa !21
  %29 = call i32 @umask(i32 noundef 0) #13
  store i32 %29, ptr %8, align 4, !tbaa !21
  %30 = load ptr, ptr %6, align 8, !tbaa !90
  %31 = load ptr, ptr %30, align 8, !tbaa !18
  %32 = call i32 (ptr, i32, ...) @open(ptr noundef %31, i32 noundef 194, i32 noundef 438)
  store i32 %32, ptr %11, align 4, !tbaa !21
  %33 = load i32, ptr %8, align 4, !tbaa !21
  %34 = call i32 @umask(i32 noundef %33) #13
  %35 = load i32, ptr %11, align 4, !tbaa !21
  %36 = icmp ne i32 %35, -1
  br i1 %36, label %37, label %49

37:                                               ; preds = %26
  %38 = load i32, ptr %11, align 4, !tbaa !21
  %39 = load ptr, ptr %10, align 8, !tbaa !18
  %40 = load ptr, ptr %10, align 8, !tbaa !18
  %41 = call i64 @strlen(ptr noundef %40) #14
  %42 = add i64 %41, 1
  %43 = call i64 @write(i32 noundef %38, ptr noundef %39, i64 noundef %42)
  %44 = icmp sgt i64 %43, -1
  br i1 %44, label %45, label %46

45:                                               ; preds = %37
  store i32 1, ptr %7, align 4, !tbaa !21
  br label %46

46:                                               ; preds = %45, %37
  %47 = load i32, ptr %11, align 4, !tbaa !21
  %48 = call i32 @close(i32 noundef %47)
  br label %147

49:                                               ; preds = %26
  call void @llvm.lifetime.start.p0(i64 64, ptr %12) #13
  %50 = getelementptr inbounds [64 x i8], ptr %12, i64 0, i64 0
  call void @llvm.memset.p0.i64(ptr align 16 %50, i8 0, i64 64, i1 false)
  %51 = load ptr, ptr %6, align 8, !tbaa !90
  %52 = load ptr, ptr %51, align 8, !tbaa !18
  %53 = call i32 (ptr, i32, ...) @open(ptr noundef %52, i32 noundef 66, i32 noundef 438)
  store i32 %53, ptr %11, align 4, !tbaa !21
  %54 = load i32, ptr %11, align 4, !tbaa !21
  %55 = icmp ne i32 %54, -1
  br i1 %55, label %56, label %123

56:                                               ; preds = %49
  call void @llvm.lifetime.start.p0(i64 4, ptr %13) #13
  %57 = load i32, ptr %11, align 4, !tbaa !21
  %58 = getelementptr inbounds [64 x i8], ptr %12, i64 0, i64 0
  %59 = call i64 @read(i32 noundef %57, ptr noundef %58, i64 noundef 63)
  %60 = trunc i64 %59 to i32
  store i32 %60, ptr %13, align 4, !tbaa !21
  %61 = icmp sgt i32 %60, 0
  br i1 %61, label %62, label %103

62:                                               ; preds = %56
  %63 = getelementptr inbounds [64 x i8], ptr %12, i64 0, i64 0
  %64 = call i32 @atoi(ptr noundef %63) #14
  %65 = load ptr, ptr %4, align 8, !tbaa !6
  %66 = getelementptr inbounds nuw %struct.dt_database_t, ptr %65, i32 0, i32 8
  store i32 %64, ptr %66, align 8, !tbaa !20
  %67 = load ptr, ptr %4, align 8, !tbaa !6
  %68 = getelementptr inbounds nuw %struct.dt_database_t, ptr %67, i32 0, i32 8
  %69 = load i32, ptr %68, align 8, !tbaa !20
  %70 = call i32 @pid_is_alive(i32 noundef %69)
  %71 = icmp ne i32 %70, 0
  br i1 %71, label %82, label %72

72:                                               ; preds = %62
  %73 = load ptr, ptr %6, align 8, !tbaa !90
  %74 = load ptr, ptr %73, align 8, !tbaa !18
  %75 = call i32 @g_unlink(ptr noundef %74)
  %76 = load i32, ptr %9, align 4, !tbaa !21
  %77 = icmp slt i32 %76, 5
  br i1 %77, label %78, label %81

78:                                               ; preds = %72
  %79 = load i32, ptr %11, align 4, !tbaa !21
  %80 = call i32 @close(i32 noundef %79)
  store i32 2, ptr %14, align 4
  br label %120

81:                                               ; preds = %72
  br label %102

82:                                               ; preds = %62
  br label %83

83:                                               ; preds = %82
  %84 = load i32, ptr getelementptr inbounds nuw (%struct.darktable_t, ptr @darktable, i32 0, i32 2), align 8, !tbaa !27
  %85 = xor i32 %84, -1
  %86 = and i32 0, %85
  %87 = icmp ne i32 %86, 0
  br i1 %87, label %92, label %88

88:                                               ; preds = %83
  %89 = load ptr, ptr %4, align 8, !tbaa !6
  %90 = getelementptr inbounds nuw %struct.dt_database_t, ptr %89, i32 0, i32 8
  %91 = load i32, ptr %90, align 8, !tbaa !20
  call void (ptr, ...) @dt_print_ext(ptr noundef @.str.149, i32 noundef %91)
  br label %92

92:                                               ; preds = %88, %83
  br label %93

93:                                               ; preds = %92
  br label %94

94:                                               ; preds = %93
  %95 = call ptr @dcgettext(ptr noundef null, ptr noundef @.str.150, i32 noundef 5) #13
  %96 = load ptr, ptr %4, align 8, !tbaa !6
  %97 = getelementptr inbounds nuw %struct.dt_database_t, ptr %96, i32 0, i32 8
  %98 = load i32, ptr %97, align 8, !tbaa !20
  %99 = call noalias ptr (ptr, ...) @g_strdup_printf(ptr noundef %95, i32 noundef %98)
  %100 = load ptr, ptr %4, align 8, !tbaa !6
  %101 = getelementptr inbounds nuw %struct.dt_database_t, ptr %100, i32 0, i32 6
  store ptr %99, ptr %101, align 8, !tbaa !22
  br label %102

102:                                              ; preds = %94, %81
  br label %117

103:                                              ; preds = %56
  br label %104

104:                                              ; preds = %103
  %105 = load i32, ptr getelementptr inbounds nuw (%struct.darktable_t, ptr @darktable, i32 0, i32 2), align 8, !tbaa !27
  %106 = xor i32 %105, -1
  %107 = and i32 0, %106
  %108 = icmp ne i32 %107, 0
  br i1 %108, label %110, label %109

109:                                              ; preds = %104
  call void (ptr, ...) @dt_print_ext(ptr noundef @.str.151)
  br label %110

110:                                              ; preds = %109, %104
  br label %111

111:                                              ; preds = %110
  br label %112

112:                                              ; preds = %111
  %113 = call ptr @dcgettext(ptr noundef null, ptr noundef @.str.152, i32 noundef 5) #13
  %114 = call noalias ptr (ptr, ...) @g_strdup_printf(ptr noundef %113)
  %115 = load ptr, ptr %4, align 8, !tbaa !6
  %116 = getelementptr inbounds nuw %struct.dt_database_t, ptr %115, i32 0, i32 6
  store ptr %114, ptr %116, align 8, !tbaa !22
  br label %117

117:                                              ; preds = %112, %102
  %118 = load i32, ptr %11, align 4, !tbaa !21
  %119 = call i32 @close(i32 noundef %118)
  store i32 0, ptr %14, align 4
  br label %120

120:                                              ; preds = %117, %78
  call void @llvm.lifetime.end.p0(i64 4, ptr %13) #13
  %121 = load i32, ptr %14, align 4
  switch i32 %121, label %144 [
    i32 0, label %122
  ]

122:                                              ; preds = %120
  br label %143

123:                                              ; preds = %49
  call void @llvm.lifetime.start.p0(i64 4, ptr %15) #13
  %124 = call ptr @__errno_location() #17
  %125 = load i32, ptr %124, align 4, !tbaa !21
  store i32 %125, ptr %15, align 4, !tbaa !21
  br label %126

126:                                              ; preds = %123
  %127 = load i32, ptr getelementptr inbounds nuw (%struct.darktable_t, ptr @darktable, i32 0, i32 2), align 8, !tbaa !27
  %128 = xor i32 %127, -1
  %129 = and i32 0, %128
  %130 = icmp ne i32 %129, 0
  br i1 %130, label %134, label %131

131:                                              ; preds = %126
  %132 = load i32, ptr %15, align 4, !tbaa !21
  %133 = call ptr @strerror(i32 noundef %132) #13
  call void (ptr, ...) @dt_print_ext(ptr noundef @.str.153, ptr noundef %133)
  br label %134

134:                                              ; preds = %131, %126
  br label %135

135:                                              ; preds = %134
  br label %136

136:                                              ; preds = %135
  %137 = call ptr @dcgettext(ptr noundef null, ptr noundef @.str.154, i32 noundef 5) #13
  %138 = load i32, ptr %15, align 4, !tbaa !21
  %139 = call ptr @strerror(i32 noundef %138) #13
  %140 = call noalias ptr (ptr, ...) @g_strdup_printf(ptr noundef %137, ptr noundef %139)
  %141 = load ptr, ptr %4, align 8, !tbaa !6
  %142 = getelementptr inbounds nuw %struct.dt_database_t, ptr %141, i32 0, i32 6
  store ptr %140, ptr %142, align 8, !tbaa !22
  call void @llvm.lifetime.end.p0(i64 4, ptr %15) #13
  br label %143

143:                                              ; preds = %136, %122
  store i32 0, ptr %14, align 4
  br label %144

144:                                              ; preds = %143, %120
  call void @llvm.lifetime.end.p0(i64 64, ptr %12) #13
  %145 = load i32, ptr %14, align 4
  switch i32 %145, label %161 [
    i32 0, label %146
    i32 2, label %26
  ]

146:                                              ; preds = %144
  br label %147

147:                                              ; preds = %146, %46
  br label %148

148:                                              ; preds = %147, %21
  %149 = load ptr, ptr %10, align 8, !tbaa !18
  call void @g_free(ptr noundef %149)
  %150 = load ptr, ptr %4, align 8, !tbaa !6
  %151 = getelementptr inbounds nuw %struct.dt_database_t, ptr %150, i32 0, i32 6
  %152 = load ptr, ptr %151, align 8, !tbaa !22
  %153 = icmp ne ptr %152, null
  br i1 %153, label %154, label %159

154:                                              ; preds = %148
  %155 = load ptr, ptr %5, align 8, !tbaa !18
  %156 = call noalias ptr @g_strdup(ptr noundef %155)
  %157 = load ptr, ptr %4, align 8, !tbaa !6
  %158 = getelementptr inbounds nuw %struct.dt_database_t, ptr %157, i32 0, i32 7
  store ptr %156, ptr %158, align 8, !tbaa !17
  br label %159

159:                                              ; preds = %154, %148
  %160 = load i32, ptr %7, align 4, !tbaa !21
  store i32 1, ptr %14, align 4
  call void @llvm.lifetime.end.p0(i64 8, ptr %10) #13
  call void @llvm.lifetime.end.p0(i64 4, ptr %9) #13
  call void @llvm.lifetime.end.p0(i64 4, ptr %8) #13
  call void @llvm.lifetime.end.p0(i64 4, ptr %7) #13
  ret i32 %160

161:                                              ; preds = %144
  unreachable
}