; Function Attrs: nounwind uwtable
define internal fastcc range(i32 0, 2) i32 @_lock_single_database(ptr noundef captures(none) %0, ptr noundef %1, ptr noundef captures(none) %2) unnamed_addr #0 {
  %4 = alloca ptr, align 8
  %5 = alloca i64, align 8
  %6 = alloca [64 x i8], align 16
  %7 = alloca [64 x i8], align 16
  %8 = tail call i32 @getpid() #18
  %9 = tail call noalias ptr (ptr, ...) @g_strdup_printf(ptr noundef nonnull @.str.147, i32 noundef %8) #18
  %10 = tail call i32 @strcmp(ptr noundef nonnull dereferenceable(1) %1, ptr noundef nonnull dereferenceable(9) @.str.23) #19
  %.not = icmp eq i32 %10, 0
  br i1 %.not, label %69, label %11

11:                                               ; preds = %3
  %12 = tail call noalias ptr (ptr, ...) @g_strconcat(ptr noundef nonnull %1, ptr noundef nonnull @.str.148, ptr noundef null) #18
  store ptr %12, ptr %2, align 8, !tbaa !70
  %13 = tail call i32 @umask(i32 noundef 0) #18
  %14 = load ptr, ptr %2, align 8, !tbaa !70
  %15 = tail call i32 (ptr, i32, ...) @open(ptr noundef %14, i32 noundef 194, i32 noundef 438) #18
  %16 = tail call i32 @umask(i32 noundef %13) #18
  %.not3866 = icmp eq i32 %15, -1
  br i1 %.not3866, label %.lr.ph, label %._crit_edge

.lr.ph:                                           ; preds = %11
  %17 = getelementptr inbounds nuw i8, ptr %0, i64 64
  br label %23

._crit_edge:                                      ; preds = %62, %11
  %.lcssa = phi i32 [ %15, %11 ], [ %67, %62 ]
  %18 = call i64 @strlen(ptr noundef nonnull dereferenceable(1) %9) #19
  %19 = add i64 %18, 1
  %20 = call i64 @write(i32 noundef %.lcssa, ptr noundef nonnull %9, i64 noundef %19) #18
  %21 = icmp sgt i64 %20, -1
  %spec.select = zext i1 %21 to i32
  %22 = call i32 @close(i32 noundef %.lcssa) #18
  br label %69

23:                                               ; preds = %.lr.ph, %62
  %24 = phi i32 [ 1, %.lr.ph ], [ %64, %62 ]
  call void @llvm.lifetime.start.p0(i64 64, ptr nonnull %7) #18
  call void @llvm.memset.p0.i64(ptr noundef nonnull align 16 dereferenceable(64) %7, i8 0, i64 64, i1 false)
  %25 = load ptr, ptr %2, align 8, !tbaa !70
  %26 = call i32 (ptr, i32, ...) @open(ptr noundef %25, i32 noundef 66, i32 noundef 438) #18
  %.not39 = icmp eq i32 %26, -1
  br i1 %.not39, label %54, label %27

27:                                               ; preds = %23
  %28 = call i64 @read(i32 noundef %26, ptr noundef nonnull %7, i64 noundef 63) #18
  %29 = trunc i64 %28 to i32
  %30 = icmp sgt i32 %29, 0
  br i1 %30, label %31, label %49

31:                                               ; preds = %27
  %32 = call i64 @strtol(ptr noundef nonnull captures(none) %7, ptr noundef null, i32 noundef 10) #18
  %33 = trunc i64 %32 to i32
  store i32 %33, ptr %17, align 8, !tbaa !17
  %34 = call i32 @kill(i32 noundef %33, i32 noundef 0) #18
  %35 = icmp eq i32 %34, -1
  br i1 %35, label %36, label %.thread.i

36:                                               ; preds = %31
  %37 = tail call ptr @__errno_location() #22
  %38 = load i32, ptr %37, align 4, !tbaa !64
  %.not4.i = icmp eq i32 %38, 3
  br i1 %.not4.i, label %pid_is_alive.exit.thread, label %.thread.i

.thread.i:                                        ; preds = %36, %31
  call void @llvm.lifetime.start.p0(i64 8, ptr nonnull %4) #18
  call void @llvm.lifetime.start.p0(i64 8, ptr nonnull %5) #18
  call void @llvm.lifetime.start.p0(i64 64, ptr nonnull %6) #18
  %39 = call i32 (ptr, i64, ptr, ...) @snprintf(ptr noundef nonnull dereferenceable(1) %6, i64 noundef 64, ptr noundef nonnull @.str.155, i32 noundef %33) #18
  %40 = call i32 @g_file_get_contents(ptr noundef nonnull @.str.34, ptr noundef nonnull %4, ptr noundef nonnull %5, ptr noundef null) #18
  %.not.i = icmp eq i32 %40, 0
  br i1 %.not.i, label %pid_is_alive.exit.thread44, label %pid_is_alive.exit

pid_is_alive.exit.thread44:                       ; preds = %.thread.i
  call void @llvm.lifetime.end.p0(i64 64, ptr nonnull %6) #18
  call void @llvm.lifetime.end.p0(i64 8, ptr nonnull %5) #18
  call void @llvm.lifetime.end.p0(i64 8, ptr nonnull %4) #18
  br label %.loopexit

pid_is_alive.exit:                                ; preds = %.thread.i
  %41 = load ptr, ptr %4, align 8, !tbaa !70
  %42 = call ptr @strstr(ptr noundef nonnull dereferenceable(1) %41, ptr noundef nonnull dereferenceable(1) @.str.156) #19
  %.not52 = icmp eq ptr %42, null
  call void @g_free(ptr noundef nonnull %41) #18
  call void @llvm.lifetime.end.p0(i64 64, ptr nonnull %6) #18
  call void @llvm.lifetime.end.p0(i64 8, ptr nonnull %5) #18
  call void @llvm.lifetime.end.p0(i64 8, ptr nonnull %4) #18
  br i1 %.not52, label %pid_is_alive.exit.thread, label %.loopexit

pid_is_alive.exit.thread:                         ; preds = %36, %pid_is_alive.exit
  %43 = load ptr, ptr %2, align 8, !tbaa !70
  %44 = call i32 @g_unlink(ptr noundef %43) #18
  %exitcond.not = icmp eq i32 %24, 5
  br i1 %exitcond.not, label %.thread, label %62

.loopexit:                                        ; preds = %pid_is_alive.exit, %pid_is_alive.exit.thread44
  %45 = load i32, ptr %17, align 8, !tbaa !17
  call void (ptr, ...) @dt_print_ext(ptr noundef nonnull @.str.149, i32 noundef %45) #18
  %46 = call ptr @dcgettext(ptr noundef null, ptr noundef nonnull @.str.150, i32 noundef 5) #18
  %47 = load i32, ptr %17, align 8, !tbaa !17
  %48 = call noalias ptr (ptr, ...) @g_strdup_printf(ptr noundef %46, i32 noundef %47) #18
  br label %.thread.sink.split

49:                                               ; preds = %27
  call void (ptr, ...) @dt_print_ext(ptr noundef nonnull @.str.151) #18
  %50 = call ptr @dcgettext(ptr noundef null, ptr noundef nonnull @.str.152, i32 noundef 5) #18
  %51 = call noalias ptr (ptr, ...) @g_strdup_printf(ptr noundef %50) #18
  br label %.thread.sink.split

.thread.sink.split:                               ; preds = %.loopexit, %49
  %.sink = phi ptr [ %51, %49 ], [ %48, %.loopexit ]
  %52 = getelementptr inbounds nuw i8, ptr %0, i64 48
  store ptr %.sink, ptr %52, align 8, !tbaa !18
  br label %.thread

.thread:                                          ; preds = %pid_is_alive.exit.thread, %.thread.sink.split
  %53 = call i32 @close(i32 noundef %26) #18
  br label %.thread49

54:                                               ; preds = %23
  %55 = tail call ptr @__errno_location() #22
  %56 = load i32, ptr %55, align 4, !tbaa !64
  %57 = call ptr @strerror(i32 noundef %56) #18
  call void (ptr, ...) @dt_print_ext(ptr noundef nonnull @.str.153, ptr noundef %57) #18
  %58 = call ptr @dcgettext(ptr noundef null, ptr noundef nonnull @.str.154, i32 noundef 5) #18
  %59 = call ptr @strerror(i32 noundef %56) #18
  %60 = call noalias ptr (ptr, ...) @g_strdup_printf(ptr noundef %58, ptr noundef %59) #18
  %61 = getelementptr inbounds nuw i8, ptr %0, i64 48
  store ptr %60, ptr %61, align 8, !tbaa !18
  br label %.thread49

.thread49:                                        ; preds = %.thread, %54
  call void @llvm.lifetime.end.p0(i64 64, ptr nonnull %7) #18
  br label %69

62:                                               ; preds = %pid_is_alive.exit.thread
  %63 = call i32 @close(i32 noundef %26) #18
  call void @llvm.lifetime.end.p0(i64 64, ptr nonnull %7) #18
  %64 = add nuw nsw i32 %24, 1
  %65 = call i32 @umask(i32 noundef 0) #18
  %66 = load ptr, ptr %2, align 8, !tbaa !70
  %67 = call i32 (ptr, i32, ...) @open(ptr noundef %66, i32 noundef 194, i32 noundef 438) #18
  %68 = call i32 @umask(i32 noundef %65) #18
  %.not38 = icmp eq i32 %67, -1
  br i1 %.not38, label %23, label %._crit_edge

69:                                               ; preds = %.thread49, %3, %._crit_edge
  %.0 = phi i32 [ %spec.select, %._crit_edge ], [ 1, %3 ], [ 0, %.thread49 ]
  call void @g_free(ptr noundef %9) #18
  %70 = getelementptr inbounds nuw i8, ptr %0, i64 48
  %71 = load ptr, ptr %70, align 8, !tbaa !18
  %.not41 = icmp eq ptr %71, null
  br i1 %.not41, label %75, label %72

72:                                               ; preds = %69
  %73 = call noalias ptr @g_strdup(ptr noundef nonnull %1) #18
  %74 = getelementptr inbounds nuw i8, ptr %0, i64 56
  store ptr %73, ptr %74, align 8, !tbaa !15
  br label %75

75:                                               ; preds = %72, %69
  ret i32 %.0
}